; Function Attrs: nounwind uwtable
define internal ptr @sys_intern(ptr readnone captures(none) %0, ptr noundef %1) #0 {
  %3 = alloca ptr, align 8
  %4 = getelementptr i8, ptr %1, i64 8
  %.val = load ptr, ptr %4, align 8, !tbaa !96
  %5 = getelementptr i8, ptr %.val, i64 168
  %.val6 = load i64, ptr %5, align 8, !tbaa !185
  %6 = and i64 %.val6, 268435456
  %.not = icmp eq i64 %6, 0
  br i1 %.not, label %7, label %8

7:                                                ; preds = %2
  tail call void @_PyArg_BadArgument(ptr noundef nonnull @.str.70, ptr noundef nonnull @.str.124, ptr noundef nonnull @.str.102, ptr noundef nonnull %1) #15
  br label %24

8:                                                ; preds = %2
  call void @llvm.lifetime.start.p0(i64 8, ptr nonnull %3)
  store ptr %1, ptr %3, align 8, !tbaa !93
  %.not.i = icmp eq ptr %.val, @PyUnicode_Type
  br i1 %.not.i, label %9, label %19

9:                                                ; preds = %8
  %10 = tail call align 8 ptr @llvm.threadlocal.address.p0(ptr align 8 @_Py_tss_tstate)
  %11 = load ptr, ptr %10, align 8, !tbaa !92
  %12 = getelementptr inbounds nuw i8, ptr %11, i64 16
  %13 = load ptr, ptr %12, align 8, !tbaa !4
  %14 = load i32, ptr %1, align 8, !tbaa !94
  %15 = icmp slt i32 %14, 0
  br i1 %15, label %Py_INCREF.exit.i, label %16

16:                                               ; preds = %9
  %17 = add nuw i32 %14, 1
  store i32 %17, ptr %1, align 8, !tbaa !94
  br label %Py_INCREF.exit.i

Py_INCREF.exit.i:                                 ; preds = %16, %9
  call void @_PyUnicode_InternMortal(ptr noundef %13, ptr noundef nonnull %3) #15
  %18 = load ptr, ptr %3, align 8, !tbaa !93
  br label %sys_intern_impl.exit

19:                                               ; preds = %8
  %20 = load ptr, ptr @PyExc_TypeError, align 8, !tbaa !93
  %21 = getelementptr inbounds nuw i8, ptr %.val, i64 24
  %22 = load ptr, ptr %21, align 8, !tbaa !197
  %23 = tail call ptr (ptr, ptr, ...) @PyErr_Format(ptr noundef %20, ptr noundef nonnull @.str.125, ptr noundef %22) #15
  br label %sys_intern_impl.exit

sys_intern_impl.exit:                             ; preds = %Py_INCREF.exit.i, %19
  %.0.i = phi ptr [ %18, %Py_INCREF.exit.i ], [ null, %19 ]
  call void @llvm.lifetime.end.p0(i64 8, ptr nonnull %3)
  br label %24

24:                                               ; preds = %sys_intern_impl.exit, %7
  %.0 = phi ptr [ %.0.i, %sys_intern_impl.exit ], [ null, %7 ]
  ret ptr %.0
}